target datalayout = "e-m:e-p270:32:32-p271:32:32-p272:64:64-i64:64-i128:128-f80:128-n8:16:32:64-S128"
target triple = "x86_64-pc-linux-gnu"

; Function Attrs: nounwind uwtable
define hidden i32 @_Py_call_instrumentation_2args(ptr noundef %0, i32 noundef %1, ptr noundef %2, ptr noundef %3, ptr noundef %4, ptr noundef %5) #0 {
  %7 = alloca ptr, align 8
  %8 = alloca i32, align 4
  %9 = alloca ptr, align 8
  %10 = alloca ptr, align 8
  %11 = alloca ptr, align 8
  %12 = alloca ptr, align 8
  %13 = alloca [5 x ptr], align 16
  store ptr %0, ptr %7, align 8, !tbaa !39
  store i32 %1, ptr %8, align 4, !tbaa !9
  store ptr %2, ptr %9, align 8, !tbaa !41
  store ptr %3, ptr %10, align 8, !tbaa !12
  store ptr %4, ptr %11, align 8, !tbaa !53
  store ptr %5, ptr %12, align 8, !tbaa !53
  call void @llvm.lifetime.start.p0(i64 40, ptr %13) #8
  store ptr null, ptr %13, align 8, !tbaa !53
  %14 = getelementptr inbounds ptr, ptr %13, i64 1
  store ptr null, ptr %14, align 8, !tbaa !53
  %15 = getelementptr inbounds ptr, ptr %13, i64 2
  store ptr null, ptr %15, align 8, !tbaa !53
  %16 = getelementptr inbounds ptr, ptr %13, i64 3
  %17 = load ptr, ptr %11, align 8, !tbaa !53
  store ptr %17, ptr %16, align 8, !tbaa !53
  %18 = getelementptr inbounds ptr, ptr %13, i64 4
  %19 = load ptr, ptr %12, align 8, !tbaa !53
  store ptr %19, ptr %18, align 8, !tbaa !53
  %20 = load ptr, ptr %10, align 8, !tbaa !12
  %21 = load ptr, ptr %7, align 8, !tbaa !39
  %22 = load i32, ptr %8, align 4, !tbaa !9
  %23 = load ptr, ptr %9, align 8, !tbaa !41
  %24 = load ptr, ptr %10, align 8, !tbaa !12
  %25 = getelementptr inbounds [5 x ptr], ptr %13, i64 0, i64 0
  %26 = call i32 @call_instrumentation_vector(ptr noundef %20, ptr noundef %21, i32 noundef %22, ptr noundef %23, ptr noundef %24, i64 noundef 4, ptr noundef %25)
  call void @llvm.lifetime.end.p0(i64 40, ptr %13) #8
  ret i32 %26
}