; Function Attrs: nounwind uwtable
define hidden range(i32 -1, 1) i32 @_Py_call_instrumentation_2args(ptr noundef %0, i32 noundef %1, ptr noundef readonly captures(none) %2, ptr noundef %3, ptr noundef %4, ptr noundef %5) local_unnamed_addr #2 {
  %7 = alloca [5 x ptr], align 16
  call void @llvm.lifetime.start.p0(i64 40, ptr nonnull %7) #11
  %8 = getelementptr inbounds nuw i8, ptr %7, i64 24
  call void @llvm.memset.p0.i64(ptr noundef nonnull align 16 dereferenceable(24) %7, i8 0, i64 24, i1 false)
  store ptr %4, ptr %8, align 8, !tbaa !46
  %9 = getelementptr inbounds nuw i8, ptr %7, i64 32
  store ptr %5, ptr %9, align 16, !tbaa !46
  %10 = call fastcc i32 @call_instrumentation_vector(ptr noundef %3, ptr noundef %0, i32 noundef %1, ptr noundef %2, ptr noundef %3, i64 noundef 4, ptr noundef %7)
  call void @llvm.lifetime.end.p0(i64 40, ptr nonnull %7) #11
  ret i32 %10
}